target datalayout = "e-m:e-p270:32:32-p271:32:32-p272:64:64-i64:64-i128:128-f80:128-n8:16:32:64-S128"
target triple = "x86_64-pc-linux-gnu"

%struct.timespec = type { i64, i64 }
%struct.conmgr_callbacks_t = type { ptr, ptr }
%union.pthread_mutex_t = type { %struct.__pthread_mutex_s }
%struct.__pthread_mutex_s = type { i32, i32, i32, i32, i32, i16, i16, %struct.__pthread_internal_list }
%struct.__pthread_internal_list = type { ptr, ptr }
%struct.event_signal_t = type { ptr, %union.pthread_cond_t, i32, i32 }
%union.pthread_cond_t = type { %struct.__pthread_cond_s }
%struct.__pthread_cond_s = type { %union.__atomic_wide_counter, %union.__atomic_wide_counter, [2 x i32], [2 x i32], i32, i32, [2 x i32] }
%union.__atomic_wide_counter = type { i64 }
%struct.slurm_conf_t = type { i64, ptr, i16, ptr, ptr, ptr, ptr, ptr, i16, ptr, ptr, ptr, ptr, ptr, ptr, ptr, i16, ptr, ptr, ptr, ptr, i16, ptr, ptr, ptr, i64, ptr, ptr, ptr, ptr, i16, ptr, ptr, i16, i32, ptr, i32, ptr, i32, i32, ptr, ptr, i64, i64, ptr, i16, i16, ptr, i32, i32, ptr, i32, ptr, i32, i16, i16, i16, ptr, i16, i16, ptr, ptr, i32, i16, i16, ptr, i32, i16, ptr, ptr, ptr, ptr, i16, ptr, ptr, ptr, ptr, i32, ptr, ptr, ptr, ptr, i16, i16, ptr, i32, i32, i32, i16, i16, ptr, ptr, i16, ptr, ptr, i32, i32, i32, i32, i32, i64, i32, i32, i16, ptr, ptr, i32, ptr, ptr, ptr, i16, i32, ptr, ptr, i16, ptr, ptr, i32, i16, ptr, ptr, ptr, ptr, i32, i32, i16, i16, i32, ptr, i16, ptr, i32, i32, i32, i32, i32, i32, ptr, i16, ptr, ptr, i32, i16, ptr, i32, i16, i16, ptr, ptr, ptr, i16, ptr, ptr, ptr, ptr, i16, i16, ptr, i16, ptr, i16, ptr, i16, ptr, i16, ptr, ptr, ptr, ptr, i16, ptr, ptr, ptr, i32, ptr, i32, ptr, ptr, i16, ptr, ptr, i32, i16, ptr, ptr, i16, i16, ptr, i16, ptr, ptr, ptr, i32, ptr, i16, i16, ptr, ptr, ptr, ptr, ptr, ptr, ptr, ptr, i16, i32, i16, ptr, ptr, ptr, ptr, i32, ptr, ptr, ptr, i16, ptr, ptr, ptr, i16, ptr, i16, ptr, i16, i16, ptr }
%struct.conmgr_t = type { i32, i32, %struct.timespec, %struct.timespec, %struct.timespec, i32, ptr, ptr, ptr, i8, i8, i64, %struct.timespec, i8, i8, i8, i8, i8, i32, ptr, ptr, %struct.conmgr_callbacks_t, %union.pthread_mutex_t, %struct.anon, %struct.anon.1, %struct.event_signal_t, %struct.event_signal_t, %struct.event_signal_t, %struct.event_signal_t }
%struct.anon = type { i32, ptr, i32, i32, i8, i32 }
%struct.anon.1 = type { i8, i8, %struct.event_signal_t, %struct.event_signal_t }

@.str.6 = private unnamed_addr constant [29 x i8] c"%s: pthread_mutex_lock(): %m\00", align 1
@.str.9 = private unnamed_addr constant [31 x i8] c"%s: pthread_mutex_unlock(): %m\00", align 1
@slurm_conf = external global %struct.slurm_conf_t, align 8
@__func__.conmgr_fini = private unnamed_addr constant [12 x i8] c"conmgr_fini\00", align 1
@.str.10 = private unnamed_addr constant [31 x i8] c"%s: duplicate shutdown request\00", align 1
@.str.11 = private unnamed_addr constant [45 x i8] c"CONMGR: %s: connection manager shutting down\00", align 1

; Function Attrs: nounwind uwtable
define dso_local void @conmgr_fini() #0 {
  %1 = alloca i32, align 4
  %2 = alloca i32, align 4
  %3 = alloca i32, align 4
  %4 = alloca i32, align 4
  br label %5

5:                                                ; preds = %0
  call void @llvm.lifetime.start.p0(i64 4, ptr %1) #8
  %6 = call i32 @pthread_mutex_lock(ptr noundef getelementptr inbounds nuw (%struct.conmgr_t, ptr @mgr, i32 0, i32 22)) #8
  store i32 %6, ptr %1, align 4
  %7 = load i32, ptr %1, align 4
  %8 = icmp ne i32 %7, 0
  br i1 %8, label %9, label %12

9:                                                ; preds = %5
  %10 = load i32, ptr %1, align 4
  %11 = call ptr @__errno_location() #9
  store i32 %10, ptr %11, align 4
  call void (ptr, ...) @fatal_abort(ptr noundef @.str.6, ptr noundef @__func__.conmgr_fini) #10
  unreachable

12:                                               ; preds = %5
  call void @llvm.lifetime.end.p0(i64 4, ptr %1) #8
  br label %13

13:                                               ; preds = %12
  %14 = load i8, ptr getelementptr inbounds nuw (%struct.conmgr_t, ptr @mgr, i32 0, i32 9), align 8, !range !8, !noundef !9
  %15 = trunc i8 %14 to i1
  br i1 %15, label %17, label %16

16:                                               ; preds = %13
  call void (ptr, ...) @fatal_abort(ptr noundef @.str.10, ptr noundef @__func__.conmgr_fini) #10
  unreachable

17:                                               ; preds = %13
  store i8 1, ptr getelementptr inbounds nuw (%struct.conmgr_t, ptr @mgr, i32 0, i32 14), align 1
  %18 = load i64, ptr getelementptr inbounds nuw (%struct.conmgr_t, ptr @mgr, i32 0, i32 11), align 8
  %19 = icmp ne i64 %18, 0
  br i1 %19, label %20, label %39

20:                                               ; preds = %17
  br label %21

21:                                               ; preds = %20
  call void @llvm.lifetime.start.p0(i64 4, ptr %2) #8
  %22 = call i32 @pthread_mutex_unlock(ptr noundef getelementptr inbounds nuw (%struct.conmgr_t, ptr @mgr, i32 0, i32 22)) #8
  store i32 %22, ptr %2, align 4
  %23 = load i32, ptr %2, align 4
  %24 = icmp ne i32 %23, 0
  br i1 %24, label %25, label %28

25:                                               ; preds = %21
  %26 = load i32, ptr %2, align 4
  %27 = call ptr @__errno_location() #9
  store i32 %26, ptr %27, align 4
  call void (ptr, ...) @fatal_abort(ptr noundef @.str.9, ptr noundef @__func__.conmgr_fini) #10
  unreachable

28:                                               ; preds = %21
  call void @llvm.lifetime.end.p0(i64 4, ptr %2) #8
  br label %29

29:                                               ; preds = %28
  call void @wait_for_watch()
  br label %30

30:                                               ; preds = %29
  call void @llvm.lifetime.start.p0(i64 4, ptr %3) #8
  %31 = call i32 @pthread_mutex_lock(ptr noundef getelementptr inbounds nuw (%struct.conmgr_t, ptr @mgr, i32 0, i32 22)) #8
  store i32 %31, ptr %3, align 4
  %32 = load i32, ptr %3, align 4
  %33 = icmp ne i32 %32, 0
  br i1 %33, label %34, label %37

34:                                               ; preds = %30
  %35 = load i32, ptr %3, align 4
  %36 = call ptr @__errno_location() #9
  store i32 %35, ptr %36, align 4
  call void (ptr, ...) @fatal_abort(ptr noundef @.str.6, ptr noundef @__func__.conmgr_fini) #10
  unreachable

37:                                               ; preds = %30
  call void @llvm.lifetime.end.p0(i64 4, ptr %3) #8
  br label %38

38:                                               ; preds = %37
  br label %39

39:                                               ; preds = %38, %17
  store i8 0, ptr getelementptr inbounds nuw (%struct.conmgr_t, ptr @mgr, i32 0, i32 9), align 8
  br label %40

40:                                               ; preds = %39
  %41 = load i64, ptr getelementptr inbounds nuw (%struct.slurm_conf_t, ptr @slurm_conf, i32 0, i32 42), align 8
  %42 = and i64 %41, 512
  %43 = icmp ne i64 %42, 0
  br i1 %43, label %44, label %51

44:                                               ; preds = %40
  br label %45

45:                                               ; preds = %44
  %46 = call i32 @get_log_level()
  %47 = icmp sge i32 %46, 4
  br i1 %47, label %48, label %49

48:                                               ; preds = %45
  call void (i32, ptr, ...) @log_var(i32 noundef 4, ptr noundef @.str.11, ptr noundef @__func__.conmgr_fini)
  br label %49

49:                                               ; preds = %48, %45
  br label %50

50:                                               ; preds = %49
  br label %51

51:                                               ; preds = %50, %40
  br label %52

52:                                               ; preds = %51
  call void @close_all_connections()
  call void @cancel_delayed_work()
  call void @workers_shutdown()
  br label %53

53:                                               ; preds = %52
  %54 = load ptr, ptr getelementptr inbounds nuw (%struct.conmgr_t, ptr @mgr, i32 0, i32 6), align 8
  %55 = icmp ne ptr %54, null
  br i1 %55, label %56, label %58

56:                                               ; preds = %53
  %57 = load ptr, ptr getelementptr inbounds nuw (%struct.conmgr_t, ptr @mgr, i32 0, i32 6), align 8
  call void @list_destroy(ptr noundef %57)
  br label %58

58:                                               ; preds = %56, %53
  store ptr null, ptr getelementptr inbounds nuw (%struct.conmgr_t, ptr @mgr, i32 0, i32 6), align 8
  br label %59

59:                                               ; preds = %58
  br label %60

60:                                               ; preds = %59
  %61 = load ptr, ptr getelementptr inbounds nuw (%struct.conmgr_t, ptr @mgr, i32 0, i32 7), align 8
  %62 = icmp ne ptr %61, null
  br i1 %62, label %63, label %65

63:                                               ; preds = %60
  %64 = load ptr, ptr getelementptr inbounds nuw (%struct.conmgr_t, ptr @mgr, i32 0, i32 7), align 8
  call void @list_destroy(ptr noundef %64)
  br label %65

65:                                               ; preds = %63, %60
  store ptr null, ptr getelementptr inbounds nuw (%struct.conmgr_t, ptr @mgr, i32 0, i32 7), align 8
  br label %66

66:                                               ; preds = %65
  br label %67

67:                                               ; preds = %66
  %68 = load ptr, ptr getelementptr inbounds nuw (%struct.conmgr_t, ptr @mgr, i32 0, i32 8), align 8
  %69 = icmp ne ptr %68, null
  br i1 %69, label %70, label %72

70:                                               ; preds = %67
  %71 = load ptr, ptr getelementptr inbounds nuw (%struct.conmgr_t, ptr @mgr, i32 0, i32 8), align 8
  call void @list_destroy(ptr noundef %71)
  br label %72

72:                                               ; preds = %70, %67
  store ptr null, ptr getelementptr inbounds nuw (%struct.conmgr_t, ptr @mgr, i32 0, i32 8), align 8
  br label %73

73:                                               ; preds = %72
  call void @free_delayed_work()
  call void @workers_fini()
  br label %74

74:                                               ; preds = %73
  %75 = load ptr, ptr getelementptr inbounds nuw (%struct.conmgr_t, ptr @mgr, i32 0, i32 20), align 8
  %76 = icmp ne ptr %75, null
  br i1 %76, label %77, label %79

77:                                               ; preds = %74
  %78 = load ptr, ptr getelementptr inbounds nuw (%struct.conmgr_t, ptr @mgr, i32 0, i32 20), align 8
  call void @list_destroy(ptr noundef %78)
  br label %79

79:                                               ; preds = %77, %74
  store ptr null, ptr getelementptr inbounds nuw (%struct.conmgr_t, ptr @mgr, i32 0, i32 20), align 8
  br label %80

80:                                               ; preds = %79
  call void @pollctl_fini()
  br label %81

81:                                               ; preds = %80
  call void @llvm.lifetime.start.p0(i64 4, ptr %4) #8
  %82 = call i32 @pthread_mutex_unlock(ptr noundef getelementptr inbounds nuw (%struct.conmgr_t, ptr @mgr, i32 0, i32 22)) #8
  store i32 %82, ptr %4, align 4
  %83 = load i32, ptr %4, align 4
  %84 = icmp ne i32 %83, 0
  br i1 %84, label %85, label %88

85:                                               ; preds = %81
  %86 = load i32, ptr %4, align 4
  %87 = call ptr @__errno_location() #9
  store i32 %86, ptr %87, align 4
  call void (ptr, ...) @fatal_abort(ptr noundef @.str.9, ptr noundef @__func__.conmgr_fini) #10
  unreachable

88:                                               ; preds = %81
  call void @llvm.lifetime.end.p0(i64 4, ptr %4) #8
  br label %89

89:                                               ; preds = %88
  ret void
}