; Function Attrs: nounwind uwtable
define dso_local void @conmgr_fini() local_unnamed_addr #0 {
  %1 = tail call i32 @pthread_mutex_lock(ptr noundef nonnull getelementptr inbounds nuw (i8, ptr @mgr, i64 168)) #11
  %.not = icmp eq i32 %1, 0
  br i1 %.not, label %4, label %2

2:                                                ; preds = %0
  %3 = tail call ptr @__errno_location() #12
  store i32 %1, ptr %3, align 4
  tail call void (ptr, ...) @fatal_abort(ptr noundef nonnull @.str.6, ptr noundef nonnull @__func__.conmgr_fini) #13
  unreachable

4:                                                ; preds = %0
  %5 = load i8, ptr getelementptr inbounds nuw (i8, ptr @mgr, i64 88), align 8, !range !8, !noundef !9
  %6 = trunc nuw i8 %5 to i1
  br i1 %6, label %8, label %7

7:                                                ; preds = %4
  tail call void (ptr, ...) @fatal_abort(ptr noundef nonnull @.str.10, ptr noundef nonnull @__func__.conmgr_fini) #13
  unreachable

8:                                                ; preds = %4
  store i8 1, ptr getelementptr inbounds nuw (i8, ptr @mgr, i64 121), align 1
  %9 = load i64, ptr getelementptr inbounds nuw (i8, ptr @mgr, i64 96), align 8
  %.not15 = icmp eq i64 %9, 0
  br i1 %.not15, label %18, label %10

10:                                               ; preds = %8
  %11 = tail call i32 @pthread_mutex_unlock(ptr noundef nonnull getelementptr inbounds nuw (i8, ptr @mgr, i64 168)) #11
  %.not16 = icmp eq i32 %11, 0
  br i1 %.not16, label %14, label %12

12:                                               ; preds = %10
  %13 = tail call ptr @__errno_location() #12
  store i32 %11, ptr %13, align 4
  tail call void (ptr, ...) @fatal_abort(ptr noundef nonnull @.str.9, ptr noundef nonnull @__func__.conmgr_fini) #13
  unreachable

14:                                               ; preds = %10
  tail call void @wait_for_watch() #11
  %15 = tail call i32 @pthread_mutex_lock(ptr noundef nonnull getelementptr inbounds nuw (i8, ptr @mgr, i64 168)) #11
  %.not17 = icmp eq i32 %15, 0
  br i1 %.not17, label %18, label %16

16:                                               ; preds = %14
  %17 = tail call ptr @__errno_location() #12
  store i32 %15, ptr %17, align 4
  tail call void (ptr, ...) @fatal_abort(ptr noundef nonnull @.str.6, ptr noundef nonnull @__func__.conmgr_fini) #13
  unreachable

18:                                               ; preds = %14, %8
  store i8 0, ptr getelementptr inbounds nuw (i8, ptr @mgr, i64 88), align 8
  %19 = load i64, ptr getelementptr inbounds nuw (i8, ptr @slurm_conf, i64 320), align 8
  %20 = and i64 %19, 512
  %.not18 = icmp eq i64 %20, 0
  br i1 %.not18, label %25, label %21

21:                                               ; preds = %18
  %22 = tail call i32 @get_log_level() #11
  %23 = icmp sgt i32 %22, 3
  br i1 %23, label %24, label %25

24:                                               ; preds = %21
  tail call void (i32, ptr, ...) @log_var(i32 noundef 4, ptr noundef nonnull @.str.11, ptr noundef nonnull @__func__.conmgr_fini) #11
  br label %25

25:                                               ; preds = %18, %21, %24
  tail call void @close_all_connections() #11
  tail call void @cancel_delayed_work() #11
  tail call void @workers_shutdown() #11
  %26 = load ptr, ptr getelementptr inbounds nuw (i8, ptr @mgr, i64 64), align 8
  %.not19 = icmp eq ptr %26, null
  br i1 %.not19, label %28, label %27

27:                                               ; preds = %25
  tail call void @list_destroy(ptr noundef nonnull %26) #11
  br label %28

28:                                               ; preds = %27, %25
  store ptr null, ptr getelementptr inbounds nuw (i8, ptr @mgr, i64 64), align 8
  %29 = load ptr, ptr getelementptr inbounds nuw (i8, ptr @mgr, i64 72), align 8
  %.not20 = icmp eq ptr %29, null
  br i1 %.not20, label %31, label %30

30:                                               ; preds = %28
  tail call void @list_destroy(ptr noundef nonnull %29) #11
  br label %31

31:                                               ; preds = %30, %28
  store ptr null, ptr getelementptr inbounds nuw (i8, ptr @mgr, i64 72), align 8
  %32 = load ptr, ptr getelementptr inbounds nuw (i8, ptr @mgr, i64 80), align 8
  %.not21 = icmp eq ptr %32, null
  br i1 %.not21, label %34, label %33

33:                                               ; preds = %31
  tail call void @list_destroy(ptr noundef nonnull %32) #11
  br label %34

34:                                               ; preds = %33, %31
  store ptr null, ptr getelementptr inbounds nuw (i8, ptr @mgr, i64 80), align 8
  tail call void @free_delayed_work() #11
  tail call void @workers_fini() #11
  %35 = load ptr, ptr getelementptr inbounds nuw (i8, ptr @mgr, i64 144), align 8
  %.not22 = icmp eq ptr %35, null
  br i1 %.not22, label %37, label %36

36:                                               ; preds = %34
  tail call void @list_destroy(ptr noundef nonnull %35) #11
  br label %37

37:                                               ; preds = %36, %34
  store ptr null, ptr getelementptr inbounds nuw (i8, ptr @mgr, i64 144), align 8
  tail call void @pollctl_fini() #11
  %38 = tail call i32 @pthread_mutex_unlock(ptr noundef nonnull getelementptr inbounds nuw (i8, ptr @mgr, i64 168)) #11
  %.not23 = icmp eq i32 %38, 0
  br i1 %.not23, label %41, label %39

39:                                               ; preds = %37
  %40 = tail call ptr @__errno_location() #12
  store i32 %38, ptr %40, align 4
  tail call void (ptr, ...) @fatal_abort(ptr noundef nonnull @.str.9, ptr noundef nonnull @__func__.conmgr_fini) #13
  unreachable

41:                                               ; preds = %37
  ret void
}